# Assembly output for main.c
# Generated at 12:54:48 PM on Saturday, January 6, 2018
# Using Debug configuration, x86_64 architecture for meltdown target of meltdown project

	.section	__TEXT,__text,regular,pure_instructions
	.macosx_version_min 10, 13
	.file	1 "/Users/xss/git/meltdown" "/Users/xss/git/meltdown/meltdown/main.c"
	.globl	_clflush_target
	.p2align	4, 0x90
_clflush_target:                        ## @clflush_target
Lfunc_begin0:
	.loc	1 30 0                  ## /Users/xss/git/meltdown/meltdown/main.c:30:0
	.cfi_startproc
## BB#0:
	pushq	%rbp
Lcfi0:
	.cfi_def_cfa_offset 16
Lcfi1:
	.cfi_offset %rbp, -16
	movq	%rsp, %rbp
Lcfi2:
	.cfi_def_cfa_register %rbp
Ltmp0:
	.loc	1 33 12 prologue_end    ## /Users/xss/git/meltdown/meltdown/main.c:33:12
	movl	$0, -4(%rbp)
LBB0_1:                                 ## =>This Inner Loop Header: Depth=1
Ltmp1:
	.loc	1 33 19 is_stmt 0 discriminator 1 ## /Users/xss/git/meltdown/meltdown/main.c:33:19
	cmpl	$2, -4(%rbp)
Ltmp2:
	.loc	1 33 5 discriminator 1  ## /Users/xss/git/meltdown/meltdown/main.c:33:5
	jge	LBB0_4
## BB#2:                                ##   in Loop: Header=BB0_1 Depth=1
	.loc	1 0 5 discriminator 1   ## /Users/xss/git/meltdown/meltdown/main.c:0:5
	leaq	_target_array(%rip), %rax
Ltmp3:
	.loc	1 34 35 is_stmt 1       ## /Users/xss/git/meltdown/meltdown/main.c:34:35
	movl	-4(%rbp), %ecx
	.loc	1 34 37 is_stmt 0       ## /Users/xss/git/meltdown/meltdown/main.c:34:37
	shll	$9, %ecx
	.loc	1 34 22                 ## /Users/xss/git/meltdown/meltdown/main.c:34:22
	movslq	%ecx, %rdx
	addq	%rdx, %rax
	.loc	1 34 9                  ## /Users/xss/git/meltdown/meltdown/main.c:34:9
	clflush	(%rax)
## BB#3:                                ##   in Loop: Header=BB0_1 Depth=1
	.loc	1 33 36 is_stmt 1 discriminator 2 ## /Users/xss/git/meltdown/meltdown/main.c:33:36
	movl	-4(%rbp), %eax
	addl	$1, %eax
	movl	%eax, -4(%rbp)
	.loc	1 33 5 is_stmt 0 discriminator 2 ## /Users/xss/git/meltdown/meltdown/main.c:33:5
	jmp	LBB0_1
Ltmp4:
LBB0_4:
	.loc	1 35 1 is_stmt 1        ## /Users/xss/git/meltdown/meltdown/main.c:35:1
	popq	%rbp
	retq
Ltmp5:
Lfunc_end0:
	.cfi_endproc

	.globl	_main
	.p2align	4, 0x90
_main:                                  ## @main
Lfunc_begin1:
	.loc	1 45 0                  ## /Users/xss/git/meltdown/meltdown/main.c:45:0
	.cfi_startproc
## BB#0:
	pushq	%rbp
Lcfi3:
	.cfi_def_cfa_offset 16
Lcfi4:
	.cfi_offset %rbp, -16
	movq	%rsp, %rbp
Lcfi5:
	.cfi_def_cfa_register %rbp
	subq	$32, %rsp
	movl	$0, -4(%rbp)
	movl	%edi, -8(%rbp)
	movq	%rsi, -16(%rbp)
Ltmp6:
	.loc	1 48 12 prologue_end    ## /Users/xss/git/meltdown/meltdown/main.c:48:12
	movl	$0, -20(%rbp)
LBB1_1:                                 ## =>This Inner Loop Header: Depth=1
Ltmp7:
	.loc	1 48 17 is_stmt 0 discriminator 1 ## /Users/xss/git/meltdown/meltdown/main.c:48:17
	movslq	-20(%rbp), %rax
	.loc	1 48 19 discriminator 1 ## /Users/xss/git/meltdown/meltdown/main.c:48:19
	cmpq	$1, %rax
Ltmp8:
	.loc	1 48 5 discriminator 1  ## /Users/xss/git/meltdown/meltdown/main.c:48:5
	jae	LBB1_4
## BB#2:                                ##   in Loop: Header=BB1_1 Depth=1
	.loc	1 0 5 discriminator 1   ## /Users/xss/git/meltdown/meltdown/main.c:0:5
	leaq	L_.str.1(%rip), %rdi
	leaq	_array(%rip), %rax
Ltmp9:
	.loc	1 49 42 is_stmt 1       ## /Users/xss/git/meltdown/meltdown/main.c:49:42
	movslq	-20(%rbp), %rcx
	movq	(%rax,%rcx,8), %rsi
	.loc	1 49 9 is_stmt 0        ## /Users/xss/git/meltdown/meltdown/main.c:49:9
	movb	$0, %al
	callq	_printf
	movl	%eax, -24(%rbp)         ## 4-byte Spill
Ltmp10:
## BB#3:                                ##   in Loop: Header=BB1_1 Depth=1
	.loc	1 48 31 is_stmt 1 discriminator 2 ## /Users/xss/git/meltdown/meltdown/main.c:48:31
	movl	-20(%rbp), %eax
	addl	$1, %eax
	movl	%eax, -20(%rbp)
	.loc	1 48 5 is_stmt 0 discriminator 2 ## /Users/xss/git/meltdown/meltdown/main.c:48:5
	jmp	LBB1_1
Ltmp11:
LBB1_4:
	.loc	1 0 5 discriminator 2   ## /Users/xss/git/meltdown/meltdown/main.c:0:5
	xorl	%eax, %eax
	.loc	1 51 5 is_stmt 1        ## /Users/xss/git/meltdown/meltdown/main.c:51:5
	addq	$32, %rsp
	popq	%rbp
	retq
Ltmp12:
Lfunc_end1:
	.cfi_endproc

.zerofill __DATA,__bss,_target_array,1024,4 ## @target_array
	.section	__TEXT,__cstring,cstring_literals
L_.str:                                 ## @.str
	.asciz	"0x424242424242"

	.section	__DATA,__data
	.globl	_array                  ## @array
	.p2align	3
_array:
	.quad	L_.str

	.section	__TEXT,__cstring,cstring_literals
L_.str.1:                               ## @.str.1
	.asciz	"Found in memory: %s\n"
